; ModuleID = '31/1069.c'
source_filename = "31/1069.c"
target datalayout = "e-m:e-p270:32:32-p271:32:32-p272:64:64-i64:64-f80:128-n8:16:32:64-S128"
target triple = "x86_64-pc-linux-gnu"

%struct.stu = type { [20 x i8], [10 x i8], [5 x i8], i32, float, [100 x i8], %struct.stu* }

@.str = private unnamed_addr constant [3 x i8] c"%s\00", align 1
@.str.1 = private unnamed_addr constant [11 x i8] c"%s%s%d%f%s\00", align 1
@.str.2 = private unnamed_addr constant [19 x i8] c"%s %s %s %d %g %s\0A\00", align 1

; Function Attrs: noinline nounwind uwtable
define dso_local i32 @main() #0 {
  %1 = alloca i32, align 4
  %2 = alloca %struct.stu*, align 8
  %3 = alloca %struct.stu*, align 8
  store i32 0, i32* %1, align 4
  %4 = call noalias i8* @malloc(i64 152) #3
  %5 = bitcast i8* %4 to %struct.stu*
  store %struct.stu* %5, %struct.stu** %2, align 8
  %6 = load %struct.stu*, %struct.stu** %2, align 8
  %7 = getelementptr inbounds %struct.stu, %struct.stu* %6, i32 0, i32 6
  store %struct.stu* null, %struct.stu** %7, align 8
  %8 = load %struct.stu*, %struct.stu** %2, align 8
  %9 = getelementptr inbounds %struct.stu, %struct.stu* %8, i32 0, i32 1
  %10 = getelementptr inbounds [10 x i8], [10 x i8]* %9, i64 0, i64 0
  %11 = call i32 (i8*, ...) @__isoc99_scanf(i8* getelementptr inbounds ([3 x i8], [3 x i8]* @.str, i64 0, i64 0), i8* %10)
  br label %12

12:                                               ; preds = %19, %0
  %13 = load %struct.stu*, %struct.stu** %2, align 8
  %14 = getelementptr inbounds %struct.stu, %struct.stu* %13, i32 0, i32 1
  %15 = getelementptr inbounds [10 x i8], [10 x i8]* %14, i64 0, i64 0
  %16 = load i8, i8* %15, align 4
  %17 = sext i8 %16 to i32
  %18 = icmp ne i32 %17, 101
  br i1 %18, label %19, label %44

19:                                               ; preds = %12
  %20 = load %struct.stu*, %struct.stu** %2, align 8
  %21 = getelementptr inbounds %struct.stu, %struct.stu* %20, i32 0, i32 0
  %22 = getelementptr inbounds [20 x i8], [20 x i8]* %21, i64 0, i64 0
  %23 = load %struct.stu*, %struct.stu** %2, align 8
  %24 = getelementptr inbounds %struct.stu, %struct.stu* %23, i32 0, i32 2
  %25 = getelementptr inbounds [5 x i8], [5 x i8]* %24, i64 0, i64 0
  %26 = load %struct.stu*, %struct.stu** %2, align 8
  %27 = getelementptr inbounds %struct.stu, %struct.stu* %26, i32 0, i32 3
  %28 = load %struct.stu*, %struct.stu** %2, align 8
  %29 = getelementptr inbounds %struct.stu, %struct.stu* %28, i32 0, i32 4
  %30 = load %struct.stu*, %struct.stu** %2, align 8
  %31 = getelementptr inbounds %struct.stu, %struct.stu* %30, i32 0, i32 5
  %32 = getelementptr inbounds [100 x i8], [100 x i8]* %31, i64 0, i64 0
  %33 = call i32 (i8*, ...) @__isoc99_scanf(i8* getelementptr inbounds ([11 x i8], [11 x i8]* @.str.1, i64 0, i64 0), i8* %22, i8* %25, i32* %27, float* %29, i8* %32)
  %34 = load %struct.stu*, %struct.stu** %2, align 8
  store %struct.stu* %34, %struct.stu** %3, align 8
  %35 = call noalias i8* @malloc(i64 152) #3
  %36 = bitcast i8* %35 to %struct.stu*
  store %struct.stu* %36, %struct.stu** %2, align 8
  %37 = load %struct.stu*, %struct.stu** %3, align 8
  %38 = load %struct.stu*, %struct.stu** %2, align 8
  %39 = getelementptr inbounds %struct.stu, %struct.stu* %38, i32 0, i32 6
  store %struct.stu* %37, %struct.stu** %39, align 8
  %40 = load %struct.stu*, %struct.stu** %2, align 8
  %41 = getelementptr inbounds %struct.stu, %struct.stu* %40, i32 0, i32 1
  %42 = getelementptr inbounds [10 x i8], [10 x i8]* %41, i64 0, i64 0
  %43 = call i32 (i8*, ...) @__isoc99_scanf(i8* getelementptr inbounds ([3 x i8], [3 x i8]* @.str, i64 0, i64 0), i8* %42)
  br label %12

44:                                               ; preds = %12
  %45 = load %struct.stu*, %struct.stu** %2, align 8
  %46 = getelementptr inbounds %struct.stu, %struct.stu* %45, i32 0, i32 6
  %47 = load %struct.stu*, %struct.stu** %46, align 8
  store %struct.stu* %47, %struct.stu** %2, align 8
  %48 = load %struct.stu*, %struct.stu** %2, align 8
  %49 = getelementptr inbounds %struct.stu, %struct.stu* %48, i32 0, i32 1
  %50 = getelementptr inbounds [10 x i8], [10 x i8]* %49, i64 0, i64 0
  %51 = load %struct.stu*, %struct.stu** %2, align 8
  %52 = getelementptr inbounds %struct.stu, %struct.stu* %51, i32 0, i32 0
  %53 = getelementptr inbounds [20 x i8], [20 x i8]* %52, i64 0, i64 0
  %54 = load %struct.stu*, %struct.stu** %2, align 8
  %55 = getelementptr inbounds %struct.stu, %struct.stu* %54, i32 0, i32 2
  %56 = getelementptr inbounds [5 x i8], [5 x i8]* %55, i64 0, i64 0
  %57 = load %struct.stu*, %struct.stu** %2, align 8
  %58 = getelementptr inbounds %struct.stu, %struct.stu* %57, i32 0, i32 3
  %59 = load i32, i32* %58, align 4
  %60 = load %struct.stu*, %struct.stu** %2, align 8
  %61 = getelementptr inbounds %struct.stu, %struct.stu* %60, i32 0, i32 4
  %62 = load float, float* %61, align 8
  %63 = fpext float %62 to double
  %64 = load %struct.stu*, %struct.stu** %2, align 8
  %65 = getelementptr inbounds %struct.stu, %struct.stu* %64, i32 0, i32 5
  %66 = getelementptr inbounds [100 x i8], [100 x i8]* %65, i64 0, i64 0
  %67 = call i32 (i8*, ...) @printf(i8* getelementptr inbounds ([19 x i8], [19 x i8]* @.str.2, i64 0, i64 0), i8* %50, i8* %53, i8* %56, i32 %59, double %63, i8* %66)
  br label %68

68:                                               ; preds = %73, %44
  %69 = load %struct.stu*, %struct.stu** %2, align 8
  %70 = getelementptr inbounds %struct.stu, %struct.stu* %69, i32 0, i32 6
  %71 = load %struct.stu*, %struct.stu** %70, align 8
  %72 = icmp ne %struct.stu* %71, null
  br i1 %72, label %73, label %97

73:                                               ; preds = %68
  %74 = load %struct.stu*, %struct.stu** %2, align 8
  %75 = getelementptr inbounds %struct.stu, %struct.stu* %74, i32 0, i32 6
  %76 = load %struct.stu*, %struct.stu** %75, align 8
  store %struct.stu* %76, %struct.stu** %2, align 8
  %77 = load %struct.stu*, %struct.stu** %2, align 8
  %78 = getelementptr inbounds %struct.stu, %struct.stu* %77, i32 0, i32 1
  %79 = getelementptr inbounds [10 x i8], [10 x i8]* %78, i64 0, i64 0
  %80 = load %struct.stu*, %struct.stu** %2, align 8
  %81 = getelementptr inbounds %struct.stu, %struct.stu* %80, i32 0, i32 0
  %82 = getelementptr inbounds [20 x i8], [20 x i8]* %81, i64 0, i64 0
  %83 = load %struct.stu*, %struct.stu** %2, align 8
  %84 = getelementptr inbounds %struct.stu, %struct.stu* %83, i32 0, i32 2
  %85 = getelementptr inbounds [5 x i8], [5 x i8]* %84, i64 0, i64 0
  %86 = load %struct.stu*, %struct.stu** %2, align 8
  %87 = getelementptr inbounds %struct.stu, %struct.stu* %86, i32 0, i32 3
  %88 = load i32, i32* %87, align 4
  %89 = load %struct.stu*, %struct.stu** %2, align 8
  %90 = getelementptr inbounds %struct.stu, %struct.stu* %89, i32 0, i32 4
  %91 = load float, float* %90, align 8
  %92 = fpext float %91 to double
  %93 = load %struct.stu*, %struct.stu** %2, align 8
  %94 = getelementptr inbounds %struct.stu, %struct.stu* %93, i32 0, i32 5
  %95 = getelementptr inbounds [100 x i8], [100 x i8]* %94, i64 0, i64 0
  %96 = call i32 (i8*, ...) @printf(i8* getelementptr inbounds ([19 x i8], [19 x i8]* @.str.2, i64 0, i64 0), i8* %79, i8* %82, i8* %85, i32 %88, double %92, i8* %95)
  br label %68

97:                                               ; preds = %68
  ret i32 0
}

; Function Attrs: nounwind
declare dso_local noalias i8* @malloc(i64) #1

declare dso_local i32 @__isoc99_scanf(i8*, ...) #2

declare dso_local i32 @printf(i8*, ...) #2


!llvm.module.flags = !{!0}
!llvm.ident = !{!1}

!0 = !{i32 1, !"wchar_size", i32 4}
!1 = !{!"clang version 10.0.0-4ubuntu1 "}
